target datalayout = "e-m:e-p270:32:32-p271:32:32-p272:64:64-i64:64-i128:128-f80:128-n8:16:32:64-S128"
target triple = "x86_64-pc-linux-gnu"

%struct.AVStream = type { ptr, i32, i32, ptr, ptr, %struct.AVRational, i64, i64, i64, i32, i32, %struct.AVRational, ptr, %struct.AVRational, %struct.AVPacket, i32, %struct.AVRational, i32 }
%struct.AVPacket = type { ptr, i64, i64, ptr, i32, i32, i32, ptr, i32, i64, i64, ptr, ptr, %struct.AVRational }
%struct.AVRational = type { i32, i32 }
%struct.AVCodecParameters = type { i32, i32, i32, ptr, i32, ptr, i32, i32, i64, i32, i32, i32, i32, i32, i32, %struct.AVRational, %struct.AVRational, i32, i32, i32, i32, i32, i32, i32, %struct.AVChannelLayout, i32, i32, i32, i32, i32, i32 }
%struct.AVChannelLayout = type { i32, i32, %union.anon.2, ptr }
%union.anon.2 = type { i64 }

@ff_generate_avci_extradata.avci100_1080p_extradata = internal constant [81 x i8] c"\00\00\00\01gz\10)\B6\D4 \223\19\C6c#!\01\11\98\CE3\19\18!\02V\B9=}~O\E3?\11\F1\9E\08\B8\8CTC\C0x\02'\E2p\1E0\10\10\14\00\00\03\00\04\00\00\03\00\CA\10\00\00\00\00\00\00\00\00\00\00\01h\CE3H\D0", align 16
@ff_generate_avci_extradata.avci50_1080p_extradata = internal constant [81 x i8] c"\00\00\00\01gn\10(\A6\D4 23\0Cq\18\88b\10\19\19\868\8CD0!\02VNo7\CD\F9\BF\81k\F3|\DEnl\D3<\05\A0\22~_\FC\00\0C\00\13\8C\04\04\05\00\00\03\00\01\00\00\03\002\84\00\00\00\00\00\00\01h\EE1\12\11", align 16
@ff_generate_avci_extradata.avci50_720p_extradata = internal constant [81 x i8] c"\00\00\00\01gn\10 \A6\D4 23\0Cq\18\88b\10\19\19\868\8CD0!\02VNo7\CD\F9\BF\81k\F3|\DEnl\D3<\0F\01n\FF\C0\00\C0\018\C0@@P\00\00\03\00\10\00\00\06H@\00\00\00\00\00\00\00\00\01h\EE1\12\11", align 16

; Function Attrs: nounwind uwtable
define i32 @ff_generate_avci_extradata(ptr noundef %0) #0 {
  %2 = alloca i32, align 4
  %3 = alloca ptr, align 8
  %4 = alloca ptr, align 8
  %5 = alloca i32, align 4
  %6 = alloca i32, align 4
  %7 = alloca i32, align 4
  store ptr %0, ptr %3, align 8, !tbaa !4
  call void @llvm.lifetime.start.p0(i64 8, ptr %4) #6
  store ptr null, ptr %4, align 8, !tbaa !37
  call void @llvm.lifetime.start.p0(i64 4, ptr %5) #6
  call void @llvm.lifetime.start.p0(i64 4, ptr %6) #6
  store i32 0, ptr %6, align 4, !tbaa !33
  %8 = load ptr, ptr %3, align 8, !tbaa !4
  %9 = getelementptr inbounds nuw %struct.AVStream, ptr %8, i32 0, i32 3
  %10 = load ptr, ptr %9, align 8, !tbaa !82
  %11 = getelementptr inbounds nuw %struct.AVCodecParameters, ptr %10, i32 0, i32 13
  %12 = load i32, ptr %11, align 8, !tbaa !99
  %13 = icmp eq i32 %12, 1920
  br i1 %13, label %14, label %24

14:                                               ; preds = %1
  %15 = load ptr, ptr %3, align 8, !tbaa !4
  %16 = getelementptr inbounds nuw %struct.AVStream, ptr %15, i32 0, i32 3
  %17 = load ptr, ptr %16, align 8, !tbaa !82
  %18 = getelementptr inbounds nuw %struct.AVCodecParameters, ptr %17, i32 0, i32 17
  %19 = load i32, ptr %18, align 8, !tbaa !100
  %20 = icmp eq i32 %19, 1
  br i1 %20, label %21, label %22

21:                                               ; preds = %14
  store ptr @ff_generate_avci_extradata.avci100_1080p_extradata, ptr %4, align 8, !tbaa !37
  store i32 81, ptr %6, align 4, !tbaa !33
  br label %23

22:                                               ; preds = %14
  store ptr @ff_generate_avci_extradata.avci100_1080i_extradata, ptr %4, align 8, !tbaa !37
  store i32 97, ptr %6, align 4, !tbaa !33
  br label %23

23:                                               ; preds = %22, %21
  br label %60

24:                                               ; preds = %1
  %25 = load ptr, ptr %3, align 8, !tbaa !4
  %26 = getelementptr inbounds nuw %struct.AVStream, ptr %25, i32 0, i32 3
  %27 = load ptr, ptr %26, align 8, !tbaa !82
  %28 = getelementptr inbounds nuw %struct.AVCodecParameters, ptr %27, i32 0, i32 13
  %29 = load i32, ptr %28, align 8, !tbaa !99
  %30 = icmp eq i32 %29, 1440
  br i1 %30, label %31, label %41

31:                                               ; preds = %24
  %32 = load ptr, ptr %3, align 8, !tbaa !4
  %33 = getelementptr inbounds nuw %struct.AVStream, ptr %32, i32 0, i32 3
  %34 = load ptr, ptr %33, align 8, !tbaa !82
  %35 = getelementptr inbounds nuw %struct.AVCodecParameters, ptr %34, i32 0, i32 17
  %36 = load i32, ptr %35, align 8, !tbaa !100
  %37 = icmp eq i32 %36, 1
  br i1 %37, label %38, label %39

38:                                               ; preds = %31
  store ptr @ff_generate_avci_extradata.avci50_1080p_extradata, ptr %4, align 8, !tbaa !37
  store i32 81, ptr %6, align 4, !tbaa !33
  br label %40

39:                                               ; preds = %31
  store ptr @ff_generate_avci_extradata.avci50_1080i_extradata, ptr %4, align 8, !tbaa !37
  store i32 97, ptr %6, align 4, !tbaa !33
  br label %40

40:                                               ; preds = %39, %38
  br label %59

41:                                               ; preds = %24
  %42 = load ptr, ptr %3, align 8, !tbaa !4
  %43 = getelementptr inbounds nuw %struct.AVStream, ptr %42, i32 0, i32 3
  %44 = load ptr, ptr %43, align 8, !tbaa !82
  %45 = getelementptr inbounds nuw %struct.AVCodecParameters, ptr %44, i32 0, i32 13
  %46 = load i32, ptr %45, align 8, !tbaa !99
  %47 = icmp eq i32 %46, 1280
  br i1 %47, label %48, label %49

48:                                               ; preds = %41
  store ptr @ff_generate_avci_extradata.avci100_720p_extradata, ptr %4, align 8, !tbaa !37
  store i32 89, ptr %6, align 4, !tbaa !33
  br label %58

49:                                               ; preds = %41
  %50 = load ptr, ptr %3, align 8, !tbaa !4
  %51 = getelementptr inbounds nuw %struct.AVStream, ptr %50, i32 0, i32 3
  %52 = load ptr, ptr %51, align 8, !tbaa !82
  %53 = getelementptr inbounds nuw %struct.AVCodecParameters, ptr %52, i32 0, i32 13
  %54 = load i32, ptr %53, align 8, !tbaa !99
  %55 = icmp eq i32 %54, 960
  br i1 %55, label %56, label %57

56:                                               ; preds = %49
  store ptr @ff_generate_avci_extradata.avci50_720p_extradata, ptr %4, align 8, !tbaa !37
  store i32 81, ptr %6, align 4, !tbaa !33
  br label %57

57:                                               ; preds = %56, %49
  br label %58

58:                                               ; preds = %57, %48
  br label %59

59:                                               ; preds = %58, %40
  br label %60

60:                                               ; preds = %59, %23
  %61 = load i32, ptr %6, align 4, !tbaa !33
  %62 = icmp ne i32 %61, 0
  br i1 %62, label %64, label %63

63:                                               ; preds = %60
  store i32 0, ptr %2, align 4
  store i32 1, ptr %7, align 4
  br label %82

64:                                               ; preds = %60
  %65 = load ptr, ptr %3, align 8, !tbaa !4
  %66 = getelementptr inbounds nuw %struct.AVStream, ptr %65, i32 0, i32 3
  %67 = load ptr, ptr %66, align 8, !tbaa !82
  %68 = load i32, ptr %6, align 4, !tbaa !33
  %69 = call i32 @ff_alloc_extradata(ptr noundef %67, i32 noundef %68)
  store i32 %69, ptr %5, align 4, !tbaa !33
  %70 = icmp slt i32 %69, 0
  br i1 %70, label %71, label %73

71:                                               ; preds = %64
  %72 = load i32, ptr %5, align 4, !tbaa !33
  store i32 %72, ptr %2, align 4
  store i32 1, ptr %7, align 4
  br label %82

73:                                               ; preds = %64
  %74 = load ptr, ptr %3, align 8, !tbaa !4
  %75 = getelementptr inbounds nuw %struct.AVStream, ptr %74, i32 0, i32 3
  %76 = load ptr, ptr %75, align 8, !tbaa !82
  %77 = getelementptr inbounds nuw %struct.AVCodecParameters, ptr %76, i32 0, i32 3
  %78 = load ptr, ptr %77, align 8, !tbaa !101
  %79 = load ptr, ptr %4, align 8, !tbaa !37
  %80 = load i32, ptr %6, align 4, !tbaa !33
  %81 = sext i32 %80 to i64
  call void @llvm.memcpy.p0.p0.i64(ptr align 1 %78, ptr align 1 %79, i64 %81, i1 false)
  store i32 0, ptr %2, align 4
  store i32 1, ptr %7, align 4
  br label %82

82:                                               ; preds = %73, %71, %63
  call void @llvm.lifetime.end.p0(i64 4, ptr %6) #6
  call void @llvm.lifetime.end.p0(i64 4, ptr %5) #6
  call void @llvm.lifetime.end.p0(i64 8, ptr %4) #6
  %83 = load i32, ptr %2, align 4
  ret i32 %83
}