; Function Attrs: nounwind uwtable
define range(i32 -2147483648, 1) i32 @ff_generate_avci_extradata(ptr noundef readonly captures(none) %0) local_unnamed_addr #2 {
  %2 = getelementptr inbounds nuw i8, ptr %0, i64 16
  %3 = load ptr, ptr %2, align 8, !tbaa !70
  %4 = getelementptr inbounds nuw i8, ptr %3, i64 72
  %5 = load i32, ptr %4, align 8, !tbaa !84
  switch i32 %5, label %23 [
    i32 1920, label %6
    i32 1440, label %10
    i32 1280, label %15
    i32 960, label %14
  ]

6:                                                ; preds = %1
  %7 = getelementptr inbounds nuw i8, ptr %3, i64 96
  %8 = load i32, ptr %7, align 8, !tbaa !85
  %9 = icmp eq i32 %8, 1
  %ff_generate_avci_extradata.avci100_1080p_extradata.ff_generate_avci_extradata.avci100_1080i_extradata = select i1 %9, ptr @ff_generate_avci_extradata.avci100_1080p_extradata, ptr @ff_generate_avci_extradata.avci100_1080i_extradata
  %. = select i1 %9, i32 81, i32 97
  br label %15

10:                                               ; preds = %1
  %11 = getelementptr inbounds nuw i8, ptr %3, i64 96
  %12 = load i32, ptr %11, align 8, !tbaa !85
  %13 = icmp eq i32 %12, 1
  %ff_generate_avci_extradata.avci50_1080p_extradata.ff_generate_avci_extradata.avci50_1080i_extradata = select i1 %13, ptr @ff_generate_avci_extradata.avci50_1080p_extradata, ptr @ff_generate_avci_extradata.avci50_1080i_extradata
  %.17 = select i1 %13, i32 81, i32 97
  br label %15

14:                                               ; preds = %1
  br label %15

15:                                               ; preds = %14, %6, %10, %1
  %.014.ph = phi ptr [ @ff_generate_avci_extradata.avci100_720p_extradata, %1 ], [ %ff_generate_avci_extradata.avci50_1080p_extradata.ff_generate_avci_extradata.avci50_1080i_extradata, %10 ], [ %ff_generate_avci_extradata.avci100_1080p_extradata.ff_generate_avci_extradata.avci100_1080i_extradata, %6 ], [ @ff_generate_avci_extradata.avci50_720p_extradata, %14 ]
  %.0.ph = phi i32 [ 89, %1 ], [ %.17, %10 ], [ %., %6 ], [ 81, %14 ]
  %16 = tail call i32 @ff_alloc_extradata(ptr noundef nonnull %3, i32 noundef %.0.ph) #6
  %17 = icmp slt i32 %16, 0
  br i1 %17, label %23, label %18

18:                                               ; preds = %15
  %19 = load ptr, ptr %2, align 8, !tbaa !70
  %20 = getelementptr inbounds nuw i8, ptr %19, i64 16
  %21 = load ptr, ptr %20, align 8, !tbaa !86
  %22 = zext nneg i32 %.0.ph to i64
  tail call void @llvm.memcpy.p0.p0.i64(ptr noundef nonnull align 1 dereferenceable(1) %21, ptr noundef nonnull align 16 dereferenceable(1) %.014.ph, i64 %22, i1 false)
  br label %23

23:                                               ; preds = %1, %15, %18
  %.013 = phi i32 [ 0, %18 ], [ %16, %15 ], [ 0, %1 ]
  ret i32 %.013
}